target datalayout = "e-m:e-p270:32:32-p271:32:32-p272:64:64-i64:64-i128:128-f80:128-n8:16:32:64-S128"
target triple = "x86_64-pc-linux-gnu"

%struct.b2Vec2 = type { float, float }
%struct.b2Capsule = type { %struct.b2Vec2, %struct.b2Vec2, float }

; Function Attrs: inlinehint nounwind uwtable
define internal <2 x float> @b2MulAdd(<2 x float> %0, float noundef %1, <2 x float> %2) #6 {
  %4 = alloca %struct.b2Vec2, align 4
  %5 = alloca %struct.b2Vec2, align 4
  %6 = alloca %struct.b2Vec2, align 4
  %7 = alloca float, align 4
  store <2 x float> %0, ptr %5, align 4
  store <2 x float> %2, ptr %6, align 4
  store float %1, ptr %7, align 4, !tbaa !12
  %8 = getelementptr inbounds nuw %struct.b2Vec2, ptr %4, i32 0, i32 0
  %9 = getelementptr inbounds nuw %struct.b2Vec2, ptr %5, i32 0, i32 0
  %10 = load float, ptr %9, align 4, !tbaa !30
  %11 = load float, ptr %7, align 4, !tbaa !12
  %12 = getelementptr inbounds nuw %struct.b2Vec2, ptr %6, i32 0, i32 0
  %13 = load float, ptr %12, align 4, !tbaa !30
  %14 = fmul float %11, %13
  %15 = fadd float %10, %14
  store float %15, ptr %8, align 4, !tbaa !30
  %16 = getelementptr inbounds nuw %struct.b2Vec2, ptr %4, i32 0, i32 1
  %17 = getelementptr inbounds nuw %struct.b2Vec2, ptr %5, i32 0, i32 1
  %18 = load float, ptr %17, align 4, !tbaa !31
  %19 = load float, ptr %7, align 4, !tbaa !12
  %20 = getelementptr inbounds nuw %struct.b2Vec2, ptr %6, i32 0, i32 1
  %21 = load float, ptr %20, align 4, !tbaa !31
  %22 = fmul float %19, %21
  %23 = fadd float %18, %22
  store float %23, ptr %16, align 4, !tbaa !31
  %24 = load <2 x float>, ptr %4, align 4
  ret <2 x float> %24
}

; Function Attrs: inlinehint nounwind uwtable
define internal float @b2ClampFloat(float noundef %0, float noundef %1, float noundef %2) #7 {
  %4 = alloca float, align 4
  %5 = alloca float, align 4
  %6 = alloca float, align 4
  store float %0, ptr %4, align 4, !tbaa !12
  store float %1, ptr %5, align 4, !tbaa !12
  store float %2, ptr %6, align 4, !tbaa !12
  %7 = load float, ptr %4, align 4, !tbaa !12
  %8 = load float, ptr %5, align 4, !tbaa !12
  %9 = fcmp olt float %7, %8
  br i1 %9, label %10, label %12

10:                                               ; preds = %3
  %11 = load float, ptr %5, align 4, !tbaa !12
  br label %22

12:                                               ; preds = %3
  %13 = load float, ptr %4, align 4, !tbaa !12
  %14 = load float, ptr %6, align 4, !tbaa !12
  %15 = fcmp ogt float %13, %14
  br i1 %15, label %16, label %18

16:                                               ; preds = %12
  %17 = load float, ptr %6, align 4, !tbaa !12
  br label %20

18:                                               ; preds = %12
  %19 = load float, ptr %4, align 4, !tbaa !12
  br label %20

20:                                               ; preds = %18, %16
  %21 = phi float [ %17, %16 ], [ %19, %18 ]
  br label %22

22:                                               ; preds = %20, %10
  %23 = phi float [ %11, %10 ], [ %21, %20 ]
  ret float %23
}

; Function Attrs: inlinehint nounwind uwtable
define internal float @b2DistanceSquared(<2 x float> %0, <2 x float> %1) #6 {
  %3 = alloca %struct.b2Vec2, align 4
  %4 = alloca %struct.b2Vec2, align 4
  %5 = alloca %struct.b2Vec2, align 4
  store <2 x float> %0, ptr %3, align 4
  store <2 x float> %1, ptr %4, align 4
  call void @llvm.lifetime.start.p0(i64 8, ptr %5) #9
  %6 = getelementptr inbounds nuw %struct.b2Vec2, ptr %5, i32 0, i32 0
  %7 = getelementptr inbounds nuw %struct.b2Vec2, ptr %4, i32 0, i32 0
  %8 = load float, ptr %7, align 4, !tbaa !30
  %9 = getelementptr inbounds nuw %struct.b2Vec2, ptr %3, i32 0, i32 0
  %10 = load float, ptr %9, align 4, !tbaa !30
  %11 = fsub float %8, %10
  store float %11, ptr %6, align 4, !tbaa !30
  %12 = getelementptr inbounds nuw %struct.b2Vec2, ptr %5, i32 0, i32 1
  %13 = getelementptr inbounds nuw %struct.b2Vec2, ptr %4, i32 0, i32 1
  %14 = load float, ptr %13, align 4, !tbaa !31
  %15 = getelementptr inbounds nuw %struct.b2Vec2, ptr %3, i32 0, i32 1
  %16 = load float, ptr %15, align 4, !tbaa !31
  %17 = fsub float %14, %16
  store float %17, ptr %12, align 4, !tbaa !31
  %18 = getelementptr inbounds nuw %struct.b2Vec2, ptr %5, i32 0, i32 0
  %19 = load float, ptr %18, align 4, !tbaa !30
  %20 = getelementptr inbounds nuw %struct.b2Vec2, ptr %5, i32 0, i32 0
  %21 = load float, ptr %20, align 4, !tbaa !30
  %22 = fmul float %19, %21
  %23 = getelementptr inbounds nuw %struct.b2Vec2, ptr %5, i32 0, i32 1
  %24 = load float, ptr %23, align 4, !tbaa !31
  %25 = getelementptr inbounds nuw %struct.b2Vec2, ptr %5, i32 0, i32 1
  %26 = load float, ptr %25, align 4, !tbaa !31
  %27 = fmul float %24, %26
  %28 = fadd float %22, %27
  call void @llvm.lifetime.end.p0(i64 8, ptr %5) #9
  ret float %28
}

; Function Attrs: inlinehint nounwind uwtable
define internal float @b2Dot(<2 x float> %0, <2 x float> %1) #6 {
  %3 = alloca %struct.b2Vec2, align 4
  %4 = alloca %struct.b2Vec2, align 4
  store <2 x float> %0, ptr %3, align 4
  store <2 x float> %1, ptr %4, align 4
  %5 = getelementptr inbounds nuw %struct.b2Vec2, ptr %3, i32 0, i32 0
  %6 = load float, ptr %5, align 4, !tbaa !30
  %7 = getelementptr inbounds nuw %struct.b2Vec2, ptr %4, i32 0, i32 0
  %8 = load float, ptr %7, align 4, !tbaa !30
  %9 = fmul float %6, %8
  %10 = getelementptr inbounds nuw %struct.b2Vec2, ptr %3, i32 0, i32 1
  %11 = load float, ptr %10, align 4, !tbaa !31
  %12 = getelementptr inbounds nuw %struct.b2Vec2, ptr %4, i32 0, i32 1
  %13 = load float, ptr %12, align 4, !tbaa !31
  %14 = fmul float %11, %13
  %15 = fadd float %9, %14
  ret float %15
}

; Function Attrs: inlinehint nounwind uwtable
define internal <2 x float> @b2Sub(<2 x float> %0, <2 x float> %1) #6 {
  %3 = alloca %struct.b2Vec2, align 4
  %4 = alloca %struct.b2Vec2, align 4
  %5 = alloca %struct.b2Vec2, align 4
  store <2 x float> %0, ptr %4, align 4
  store <2 x float> %1, ptr %5, align 4
  %6 = getelementptr inbounds nuw %struct.b2Vec2, ptr %3, i32 0, i32 0
  %7 = getelementptr inbounds nuw %struct.b2Vec2, ptr %4, i32 0, i32 0
  %8 = load float, ptr %7, align 4, !tbaa !30
  %9 = getelementptr inbounds nuw %struct.b2Vec2, ptr %5, i32 0, i32 0
  %10 = load float, ptr %9, align 4, !tbaa !30
  %11 = fsub float %8, %10
  store float %11, ptr %6, align 4, !tbaa !30
  %12 = getelementptr inbounds nuw %struct.b2Vec2, ptr %3, i32 0, i32 1
  %13 = getelementptr inbounds nuw %struct.b2Vec2, ptr %4, i32 0, i32 1
  %14 = load float, ptr %13, align 4, !tbaa !31
  %15 = getelementptr inbounds nuw %struct.b2Vec2, ptr %5, i32 0, i32 1
  %16 = load float, ptr %15, align 4, !tbaa !31
  %17 = fsub float %14, %16
  store float %17, ptr %12, align 4, !tbaa !31
  %18 = load <2 x float>, ptr %3, align 4
  ret <2 x float> %18
}

; Function Attrs: nounwind uwtable
define zeroext i1 @b2PointInCapsule(<2 x float> %0, ptr noundef %1) #0 {
  %3 = alloca i1, align 1
  %4 = alloca %struct.b2Vec2, align 4
  %5 = alloca ptr, align 8
  %6 = alloca float, align 4
  %7 = alloca %struct.b2Vec2, align 4
  %8 = alloca %struct.b2Vec2, align 4
  %9 = alloca %struct.b2Vec2, align 4
  %10 = alloca float, align 4
  %11 = alloca i32, align 4
  %12 = alloca float, align 4
  %13 = alloca %struct.b2Vec2, align 4
  %14 = alloca %struct.b2Vec2, align 4
  store <2 x float> %0, ptr %4, align 4
  store ptr %1, ptr %5, align 8, !tbaa !57
  call void @llvm.lifetime.start.p0(i64 4, ptr %6) #9
  %15 = load ptr, ptr %5, align 8, !tbaa !57
  %16 = getelementptr inbounds nuw %struct.b2Capsule, ptr %15, i32 0, i32 2
  %17 = load float, ptr %16, align 4, !tbaa !59
  %18 = load ptr, ptr %5, align 8, !tbaa !57
  %19 = getelementptr inbounds nuw %struct.b2Capsule, ptr %18, i32 0, i32 2
  %20 = load float, ptr %19, align 4, !tbaa !59
  %21 = fmul float %17, %20
  store float %21, ptr %6, align 4, !tbaa !12
  call void @llvm.lifetime.start.p0(i64 8, ptr %7) #9
  %22 = load ptr, ptr %5, align 8, !tbaa !57
  %23 = getelementptr inbounds nuw %struct.b2Capsule, ptr %22, i32 0, i32 0
  call void @llvm.memcpy.p0.p0.i64(ptr align 4 %7, ptr align 4 %23, i64 8, i1 false), !tbaa.struct !26
  call void @llvm.lifetime.start.p0(i64 8, ptr %8) #9
  %24 = load ptr, ptr %5, align 8, !tbaa !57
  %25 = getelementptr inbounds nuw %struct.b2Capsule, ptr %24, i32 0, i32 1
  call void @llvm.memcpy.p0.p0.i64(ptr align 4 %8, ptr align 4 %25, i64 8, i1 false), !tbaa.struct !26
  call void @llvm.lifetime.start.p0(i64 8, ptr %9) #9
  %26 = load <2 x float>, ptr %8, align 4
  %27 = load <2 x float>, ptr %7, align 4
  %28 = call <2 x float> @b2Sub(<2 x float> %26, <2 x float> %27)
  store <2 x float> %28, ptr %9, align 4
  call void @llvm.lifetime.start.p0(i64 4, ptr %10) #9
  %29 = load <2 x float>, ptr %9, align 4
  %30 = load <2 x float>, ptr %9, align 4
  %31 = call float @b2Dot(<2 x float> %29, <2 x float> %30)
  store float %31, ptr %10, align 4, !tbaa !12
  %32 = load float, ptr %10, align 4, !tbaa !12
  %33 = fcmp oeq float %32, 0.000000e+00
  br i1 %33, label %34, label %40

34:                                               ; preds = %2
  %35 = load <2 x float>, ptr %4, align 4
  %36 = load <2 x float>, ptr %7, align 4
  %37 = call float @b2DistanceSquared(<2 x float> %35, <2 x float> %36)
  %38 = load float, ptr %6, align 4, !tbaa !12
  %39 = fcmp ole float %37, %38
  store i1 %39, ptr %3, align 1
  store i32 1, ptr %11, align 4
  br label %60

40:                                               ; preds = %2
  call void @llvm.lifetime.start.p0(i64 4, ptr %12) #9
  %41 = load <2 x float>, ptr %4, align 4
  %42 = load <2 x float>, ptr %7, align 4
  %43 = call <2 x float> @b2Sub(<2 x float> %41, <2 x float> %42)
  store <2 x float> %43, ptr %13, align 4
  %44 = load <2 x float>, ptr %13, align 4
  %45 = load <2 x float>, ptr %9, align 4
  %46 = call float @b2Dot(<2 x float> %44, <2 x float> %45)
  %47 = load float, ptr %10, align 4, !tbaa !12
  %48 = fdiv float %46, %47
  store float %48, ptr %12, align 4, !tbaa !12
  %49 = load float, ptr %12, align 4, !tbaa !12
  %50 = call float @b2ClampFloat(float noundef %49, float noundef 0.000000e+00, float noundef 1.000000e+00)
  store float %50, ptr %12, align 4, !tbaa !12
  call void @llvm.lifetime.start.p0(i64 8, ptr %14) #9
  %51 = load float, ptr %12, align 4, !tbaa !12
  %52 = load <2 x float>, ptr %7, align 4
  %53 = load <2 x float>, ptr %9, align 4
  %54 = call <2 x float> @b2MulAdd(<2 x float> %52, float noundef %51, <2 x float> %53)
  store <2 x float> %54, ptr %14, align 4
  %55 = load <2 x float>, ptr %4, align 4
  %56 = load <2 x float>, ptr %14, align 4
  %57 = call float @b2DistanceSquared(<2 x float> %55, <2 x float> %56)
  %58 = load float, ptr %6, align 4, !tbaa !12
  %59 = fcmp ole float %57, %58
  store i1 %59, ptr %3, align 1
  store i32 1, ptr %11, align 4
  call void @llvm.lifetime.end.p0(i64 8, ptr %14) #9
  call void @llvm.lifetime.end.p0(i64 4, ptr %12) #9
  br label %60

60:                                               ; preds = %40, %34
  call void @llvm.lifetime.end.p0(i64 4, ptr %10) #9
  call void @llvm.lifetime.end.p0(i64 8, ptr %9) #9
  call void @llvm.lifetime.end.p0(i64 8, ptr %8) #9
  call void @llvm.lifetime.end.p0(i64 8, ptr %7) #9
  call void @llvm.lifetime.end.p0(i64 4, ptr %6) #9
  %61 = load i1, ptr %3, align 1
  ret i1 %61
}