; Function Attrs: mustprogress nofree norecurse nosync nounwind willreturn memory(argmem: read) uwtable
define zeroext i1 @b2PointInCapsule(<2 x float> %0, ptr noundef readonly captures(none) %1) local_unnamed_addr #8 {
  %3 = getelementptr inbounds nuw i8, ptr %1, i64 16
  %4 = load float, ptr %3, align 4, !tbaa !44
  %.sroa.010.0.copyload = load <2 x float>, ptr %1, align 4
  %5 = getelementptr inbounds nuw i8, ptr %1, i64 8
  %.sroa.09.0.copyload = load <2 x float>, ptr %5, align 4
  %.sroa.0.0.vec.extract.i = extractelement <2 x float> %.sroa.010.0.copyload, i64 0
  %6 = fsub <2 x float> %.sroa.09.0.copyload, %.sroa.010.0.copyload
  %.sroa.0.4.vec.extract.i = extractelement <2 x float> %.sroa.010.0.copyload, i64 1
  %7 = fsub <2 x float> %.sroa.09.0.copyload, %.sroa.010.0.copyload
  %8 = extractelement <2 x float> %7, i64 1
  %9 = fmul <2 x float> %6, %6
  %10 = extractelement <2 x float> %9, i64 0
  %11 = fmul float %8, %8
  %12 = fadd float %10, %11
  %13 = fcmp oeq float %12, 0.000000e+00
  %.sroa.04.4.vec.extract.i = extractelement <2 x float> %0, i64 1
  br i1 %13, label %31, label %14

14:                                               ; preds = %2
  %15 = extractelement <2 x float> %6, i64 0
  %16 = fsub <2 x float> %0, %.sroa.010.0.copyload
  %17 = fsub float %.sroa.04.4.vec.extract.i, %.sroa.0.4.vec.extract.i
  %18 = fmul <2 x float> %16, %6
  %19 = extractelement <2 x float> %18, i64 0
  %20 = fmul float %17, %8
  %21 = fadd float %19, %20
  %22 = fdiv float %21, %12
  %23 = fcmp olt float %22, 0.000000e+00
  %24 = fcmp ogt float %22, 1.000000e+00
  %25 = select i1 %24, float 1.000000e+00, float %22
  %26 = select i1 %23, float 0.000000e+00, float %25
  %27 = fmul float %15, %26
  %28 = fadd float %.sroa.0.0.vec.extract.i, %27
  %29 = fmul float %8, %26
  %30 = fadd float %.sroa.0.4.vec.extract.i, %29
  br label %31

31:                                               ; preds = %2, %14
  %.sink50 = phi float [ %28, %14 ], [ %.sroa.0.0.vec.extract.i, %2 ]
  %.sink = phi float [ %30, %14 ], [ %.sroa.0.4.vec.extract.i, %2 ]
  %.sroa.04.0.vec.extract.i = extractelement <2 x float> %0, i64 0
  %32 = fsub float %.sink50, %.sroa.04.0.vec.extract.i
  %33 = fsub float %.sink, %.sroa.04.4.vec.extract.i
  %34 = fmul float %32, %32
  %35 = fmul float %33, %33
  %36 = fadd float %34, %35
  %37 = fmul float %4, %4
  %.0 = fcmp ole float %36, %37
  ret i1 %.0
}